target datalayout = "e-m:e-p270:32:32-p271:32:32-p272:64:64-i64:64-i128:128-f80:128-n8:16:32:64-S128"
target triple = "x86_64-pc-linux-gnu"

%struct.cli_bc_ctx = type { i8, i16, i32, ptr, ptr, i32, i32, ptr, ptr, ptr, i32, i32, i64, ptr, ptr, ptr, %struct.cli_bc_hooks, %struct.cli_exe_info, [64 x i32], [64 x i32], i32, ptr, ptr, i32, i32, i32, i32, ptr, i32, ptr, ptr, i32, i32, i32, i32, i32, i32, ptr, ptr, ptr, ptr, ptr, ptr, ptr, i32, i32, i32, i32, ptr, ptr, ptr, ptr, ptr, i32, i32, i32, i32, ptr, ptr, ptr, ptr, i32, i32, i32, ptr, i32, ptr, i32, i32, ptr, i32 }
%struct.cli_bc_hooks = type { ptr, ptr, ptr, ptr, ptr }
%struct.cli_exe_info = type { ptr, i32, i32, i16, i32, i32, %struct.cli_hashset, i32, i32, i32, i32, i32, i32, i32, i32, i32, %struct.pe_image_file_hdr, %union.anon, [16 x %struct.pe_image_data_dir] }
%struct.cli_hashset = type { ptr, ptr, ptr, i32, i32, i32, i32 }
%struct.pe_image_file_hdr = type { i32, i16, i16, i32, i32, i32, i16, i16 }
%union.anon = type { %struct.pe_image_optional_hdr64 }
%struct.pe_image_optional_hdr64 = type { i16, i8, i8, i32, i32, i32, i32, i32, i64, i32, i32, i16, i16, i16, i16, i16, i16, i32, i32, i32, i32, i16, i16, i64, i64, i64, i64, i32, i32 }
%struct.pe_image_data_dir = type { i32, i32 }

@.str.134 = private unnamed_addr constant [16 x i8] c"API misuse @619\00", align 1

; Function Attrs: nounwind uwtable
define internal ptr @get_hashset(ptr noundef %0, i32 noundef %1) #0 {
  %3 = alloca ptr, align 8
  %4 = alloca ptr, align 8
  %5 = alloca i32, align 4
  store ptr %0, ptr %4, align 8
  store i32 %1, ptr %5, align 4
  %6 = load i32, ptr %5, align 4
  %7 = icmp slt i32 %6, 0
  br i1 %7, label %19, label %8

8:                                                ; preds = %2
  %9 = load i32, ptr %5, align 4
  %10 = load ptr, ptr %4, align 8
  %11 = getelementptr inbounds %struct.cli_bc_ctx, ptr %10, i32 0, i32 54
  %12 = load i32, ptr %11, align 4
  %13 = icmp uge i32 %9, %12
  br i1 %13, label %19, label %14

14:                                               ; preds = %8
  %15 = load ptr, ptr %4, align 8
  %16 = getelementptr inbounds %struct.cli_bc_ctx, ptr %15, i32 0, i32 57
  %17 = load ptr, ptr %16, align 8
  %18 = icmp ne ptr %17, null
  br i1 %18, label %23, label %19

19:                                               ; preds = %14, %8, %2
  %20 = load ptr, ptr %4, align 8
  %21 = getelementptr inbounds %struct.cli_bc_ctx, ptr %20, i32 0, i32 66
  %22 = load ptr, ptr %21, align 8
  call void @cli_event_error_str(ptr noundef %22, ptr noundef @.str.134)
  store ptr null, ptr %3, align 8
  br label %30

23:                                               ; preds = %14
  %24 = load ptr, ptr %4, align 8
  %25 = getelementptr inbounds %struct.cli_bc_ctx, ptr %24, i32 0, i32 57
  %26 = load ptr, ptr %25, align 8
  %27 = load i32, ptr %5, align 4
  %28 = sext i32 %27 to i64
  %29 = getelementptr inbounds %struct.cli_hashset, ptr %26, i64 %28
  store ptr %29, ptr %3, align 8
  br label %30

30:                                               ; preds = %23, %19
  %31 = load ptr, ptr %3, align 8
  ret ptr %31
}

; Function Attrs: nounwind uwtable
define i32 @cli_bcapi_hashset_done(ptr noundef %0, i32 noundef %1) #0 {
  %3 = alloca i32, align 4
  %4 = alloca ptr, align 8
  %5 = alloca i32, align 4
  %6 = alloca ptr, align 8
  store ptr %0, ptr %4, align 8
  store i32 %1, ptr %5, align 4
  %7 = load ptr, ptr %4, align 8
  %8 = load i32, ptr %5, align 4
  %9 = call ptr @get_hashset(ptr noundef %7, i32 noundef %8)
  store ptr %9, ptr %6, align 8
  %10 = load ptr, ptr %6, align 8
  %11 = icmp ne ptr %10, null
  br i1 %11, label %13, label %12

12:                                               ; preds = %2
  store i32 -1, ptr %3, align 4
  br label %55

13:                                               ; preds = %2
  %14 = load ptr, ptr %6, align 8
  call void @cli_hashset_destroy(ptr noundef %14)
  %15 = load i32, ptr %5, align 4
  %16 = load ptr, ptr %4, align 8
  %17 = getelementptr inbounds %struct.cli_bc_ctx, ptr %16, i32 0, i32 54
  %18 = load i32, ptr %17, align 4
  %19 = sub i32 %18, 1
  %20 = icmp eq i32 %15, %19
  br i1 %20, label %21, label %54

21:                                               ; preds = %13
  %22 = load ptr, ptr %4, align 8
  %23 = getelementptr inbounds %struct.cli_bc_ctx, ptr %22, i32 0, i32 54
  %24 = load i32, ptr %23, align 4
  %25 = add i32 %24, -1
  store i32 %25, ptr %23, align 4
  %26 = load ptr, ptr %4, align 8
  %27 = getelementptr inbounds %struct.cli_bc_ctx, ptr %26, i32 0, i32 54
  %28 = load i32, ptr %27, align 4
  %29 = icmp ne i32 %28, 0
  br i1 %29, label %36, label %30

30:                                               ; preds = %21
  %31 = load ptr, ptr %4, align 8
  %32 = getelementptr inbounds %struct.cli_bc_ctx, ptr %31, i32 0, i32 57
  %33 = load ptr, ptr %32, align 8
  call void @free(ptr noundef %33) #10
  %34 = load ptr, ptr %4, align 8
  %35 = getelementptr inbounds %struct.cli_bc_ctx, ptr %34, i32 0, i32 57
  store ptr null, ptr %35, align 8
  br label %53

36:                                               ; preds = %21
  %37 = load ptr, ptr %4, align 8
  %38 = getelementptr inbounds %struct.cli_bc_ctx, ptr %37, i32 0, i32 57
  %39 = load ptr, ptr %38, align 8
  %40 = load ptr, ptr %4, align 8
  %41 = getelementptr inbounds %struct.cli_bc_ctx, ptr %40, i32 0, i32 54
  %42 = load i32, ptr %41, align 4
  %43 = zext i32 %42 to i64
  %44 = mul i64 %43, 40
  %45 = call ptr @cli_max_realloc(ptr noundef %39, i64 noundef %44)
  store ptr %45, ptr %6, align 8
  %46 = load ptr, ptr %6, align 8
  %47 = icmp ne ptr %46, null
  br i1 %47, label %48, label %52

48:                                               ; preds = %36
  %49 = load ptr, ptr %6, align 8
  %50 = load ptr, ptr %4, align 8
  %51 = getelementptr inbounds %struct.cli_bc_ctx, ptr %50, i32 0, i32 57
  store ptr %49, ptr %51, align 8
  br label %52

52:                                               ; preds = %48, %36
  br label %53

53:                                               ; preds = %52, %30
  br label %54

54:                                               ; preds = %53, %13
  store i32 0, ptr %3, align 4
  br label %55

55:                                               ; preds = %54, %12
  %56 = load i32, ptr %3, align 4
  ret i32 %56
}