; Function Attrs: nounwind uwtable
define noundef i32 @cli_bcapi_hashset_done(ptr nocapture noundef %0, i32 noundef %1) local_unnamed_addr #1 {
  %3 = icmp slt i32 %1, 0
  br i1 %3, label %get_hashset.exit.thread, label %4

4:                                                ; preds = %2
  %5 = getelementptr inbounds i8, ptr %0, i64 1236
  %6 = load i32, ptr %5, align 4
  %.not.i = icmp ugt i32 %6, %1
  br i1 %.not.i, label %7, label %get_hashset.exit.thread

7:                                                ; preds = %4
  %8 = getelementptr inbounds i8, ptr %0, i64 1248
  %9 = load ptr, ptr %8, align 8
  %.not9.i = icmp eq ptr %9, null
  br i1 %.not9.i, label %get_hashset.exit.thread, label %get_hashset.exit

get_hashset.exit.thread:                          ; preds = %2, %4, %7
  %10 = getelementptr inbounds i8, ptr %0, i64 1312
  %11 = load ptr, ptr %10, align 8
  tail call void @cli_event_error_str(ptr noundef %11, ptr noundef nonnull @.str.134) #29
  br label %24

get_hashset.exit:                                 ; preds = %7
  %12 = zext nneg i32 %1 to i64
  %13 = getelementptr inbounds %struct.cli_hashset, ptr %9, i64 %12
  tail call void @cli_hashset_destroy(ptr noundef nonnull %13) #29
  %14 = load i32, ptr %5, align 4
  %15 = add i32 %14, -1
  %16 = icmp eq i32 %15, %1
  br i1 %16, label %17, label %24

17:                                               ; preds = %get_hashset.exit
  store i32 %1, ptr %5, align 4
  %.not18 = icmp eq i32 %1, 0
  %18 = load ptr, ptr %8, align 8
  br i1 %.not18, label %19, label %20

19:                                               ; preds = %17
  tail call void @free(ptr noundef %18) #29
  store ptr null, ptr %8, align 8
  br label %24

20:                                               ; preds = %17
  %21 = mul nuw nsw i64 %12, 40
  %22 = tail call ptr @cli_max_realloc(ptr noundef %18, i64 noundef %21) #29
  %.not19 = icmp eq ptr %22, null
  br i1 %.not19, label %24, label %23

23:                                               ; preds = %20
  store ptr %22, ptr %8, align 8
  br label %24

24:                                               ; preds = %get_hashset.exit.thread, %get_hashset.exit, %20, %23, %19
  %.0 = phi i32 [ 0, %19 ], [ 0, %23 ], [ 0, %20 ], [ 0, %get_hashset.exit ], [ -1, %get_hashset.exit.thread ]
  ret i32 %.0
}